target datalayout = "e-m:e-p270:32:32-p271:32:32-p272:64:64-i64:64-i128:128-f80:128-n8:16:32:64-S128"
target triple = "x86_64-pc-linux-gnu"

%struct.config_s = type { i16, i16, i16, i16, ptr }
%struct.z_stream_s = type { ptr, i32, i64, ptr, i32, i64, ptr, ptr, ptr, ptr, ptr, i32, i64, i64 }
%struct.internal_state = type { ptr, i32, ptr, i64, ptr, i32, i32, ptr, i32, i8, i32, i32, i32, i32, ptr, i64, ptr, ptr, i32, i32, i32, i32, i32, i64, i32, i32, i32, i32, i32, i32, i32, i32, i32, i32, i32, i32, i32, [573 x %struct.ct_data_s], [61 x %struct.ct_data_s], [39 x %struct.ct_data_s], %struct.tree_desc_s, %struct.tree_desc_s, %struct.tree_desc_s, [16 x i16], [573 x i32], i32, i32, [573 x i8], ptr, i32, i32, ptr, i64, i64, i32, i32, i16, i32, i64 }
%struct.ct_data_s = type { %union.anon, %union.anon.0 }
%union.anon = type { i16 }
%union.anon.0 = type { i16 }
%struct.tree_desc_s = type { ptr, i32, ptr }

; Function Attrs: nounwind uwtable
define i32 @deflateParams(ptr noundef %0, i32 noundef %1, i32 noundef %2) #0 {
  %4 = alloca i32, align 4
  %5 = alloca ptr, align 8
  %6 = alloca i32, align 4
  %7 = alloca i32, align 4
  %8 = alloca ptr, align 8
  %9 = alloca ptr, align 8
  %10 = alloca i32, align 4
  %11 = alloca i32, align 4
  store ptr %0, ptr %5, align 8, !tbaa !3
  store i32 %1, ptr %6, align 4, !tbaa !8
  store i32 %2, ptr %7, align 4, !tbaa !8
  call void @llvm.lifetime.start.p0(i64 8, ptr %8) #5
  call void @llvm.lifetime.start.p0(i64 8, ptr %9) #5
  call void @llvm.lifetime.start.p0(i64 4, ptr %10) #5
  store i32 0, ptr %10, align 4, !tbaa !8
  %12 = load ptr, ptr %5, align 8, !tbaa !3
  %13 = icmp eq ptr %12, null
  br i1 %13, label %19, label %14

14:                                               ; preds = %3
  %15 = load ptr, ptr %5, align 8, !tbaa !3
  %16 = getelementptr inbounds nuw %struct.z_stream_s, ptr %15, i32 0, i32 7
  %17 = load ptr, ptr %16, align 8, !tbaa !21
  %18 = icmp eq ptr %17, null
  br i1 %18, label %19, label %20

19:                                               ; preds = %14, %3
  store i32 -2, ptr %4, align 4
  store i32 1, ptr %11, align 4
  br label %125

20:                                               ; preds = %14
  %21 = load ptr, ptr %5, align 8, !tbaa !3
  %22 = getelementptr inbounds nuw %struct.z_stream_s, ptr %21, i32 0, i32 7
  %23 = load ptr, ptr %22, align 8, !tbaa !21
  store ptr %23, ptr %8, align 8, !tbaa !20
  %24 = load i32, ptr %6, align 4, !tbaa !8
  %25 = icmp eq i32 %24, -1
  br i1 %25, label %26, label %27

26:                                               ; preds = %20
  store i32 6, ptr %6, align 4, !tbaa !8
  br label %27

27:                                               ; preds = %26, %20
  %28 = load i32, ptr %6, align 4, !tbaa !8
  %29 = icmp slt i32 %28, 0
  br i1 %29, label %39, label %30

30:                                               ; preds = %27
  %31 = load i32, ptr %6, align 4, !tbaa !8
  %32 = icmp sgt i32 %31, 9
  br i1 %32, label %39, label %33

33:                                               ; preds = %30
  %34 = load i32, ptr %7, align 4, !tbaa !8
  %35 = icmp slt i32 %34, 0
  br i1 %35, label %39, label %36

36:                                               ; preds = %33
  %37 = load i32, ptr %7, align 4, !tbaa !8
  %38 = icmp sgt i32 %37, 4
  br i1 %38, label %39, label %40

39:                                               ; preds = %36, %33, %30, %27
  store i32 -2, ptr %4, align 4
  store i32 1, ptr %11, align 4
  br label %125

40:                                               ; preds = %36
  %41 = load ptr, ptr %8, align 8, !tbaa !20
  %42 = getelementptr inbounds nuw %struct.internal_state, ptr %41, i32 0, i32 33
  %43 = load i32, ptr %42, align 4, !tbaa !50
  %44 = sext i32 %43 to i64
  %45 = getelementptr inbounds [10 x %struct.config_s], ptr @configuration_table, i64 0, i64 %44
  %46 = getelementptr inbounds nuw %struct.config_s, ptr %45, i32 0, i32 4
  %47 = load ptr, ptr %46, align 8, !tbaa !96
  store ptr %47, ptr %9, align 8, !tbaa !97
  %48 = load i32, ptr %7, align 4, !tbaa !8
  %49 = load ptr, ptr %8, align 8, !tbaa !20
  %50 = getelementptr inbounds nuw %struct.internal_state, ptr %49, i32 0, i32 34
  %51 = load i32, ptr %50, align 8, !tbaa !51
  %52 = icmp ne i32 %48, %51
  br i1 %52, label %61, label %53

53:                                               ; preds = %40
  %54 = load ptr, ptr %9, align 8, !tbaa !97
  %55 = load i32, ptr %6, align 4, !tbaa !8
  %56 = sext i32 %55 to i64
  %57 = getelementptr inbounds [10 x %struct.config_s], ptr @configuration_table, i64 0, i64 %56
  %58 = getelementptr inbounds nuw %struct.config_s, ptr %57, i32 0, i32 4
  %59 = load ptr, ptr %58, align 8, !tbaa !96
  %60 = icmp ne ptr %54, %59
  br i1 %60, label %61, label %78

61:                                               ; preds = %53, %40
  %62 = load ptr, ptr %5, align 8, !tbaa !3
  %63 = getelementptr inbounds nuw %struct.z_stream_s, ptr %62, i32 0, i32 2
  %64 = load i64, ptr %63, align 8, !tbaa !76
  %65 = icmp ne i64 %64, 0
  br i1 %65, label %66, label %78

66:                                               ; preds = %61
  %67 = load ptr, ptr %5, align 8, !tbaa !3
  %68 = call i32 @deflate(ptr noundef %67, i32 noundef 5)
  store i32 %68, ptr %10, align 4, !tbaa !8
  %69 = load i32, ptr %10, align 4, !tbaa !8
  %70 = icmp eq i32 %69, -5
  br i1 %70, label %71, label %77

71:                                               ; preds = %66
  %72 = load ptr, ptr %8, align 8, !tbaa !20
  %73 = getelementptr inbounds nuw %struct.internal_state, ptr %72, i32 0, i32 5
  %74 = load i32, ptr %73, align 8, !tbaa !78
  %75 = icmp eq i32 %74, 0
  br i1 %75, label %76, label %77

76:                                               ; preds = %71
  store i32 0, ptr %10, align 4, !tbaa !8
  br label %77

77:                                               ; preds = %76, %71, %66
  br label %78

78:                                               ; preds = %77, %61, %53
  %79 = load ptr, ptr %8, align 8, !tbaa !20
  %80 = getelementptr inbounds nuw %struct.internal_state, ptr %79, i32 0, i32 33
  %81 = load i32, ptr %80, align 4, !tbaa !50
  %82 = load i32, ptr %6, align 4, !tbaa !8
  %83 = icmp ne i32 %81, %82
  br i1 %83, label %84, label %120

84:                                               ; preds = %78
  %85 = load i32, ptr %6, align 4, !tbaa !8
  %86 = load ptr, ptr %8, align 8, !tbaa !20
  %87 = getelementptr inbounds nuw %struct.internal_state, ptr %86, i32 0, i32 33
  store i32 %85, ptr %87, align 4, !tbaa !50
  %88 = load i32, ptr %6, align 4, !tbaa !8
  %89 = sext i32 %88 to i64
  %90 = getelementptr inbounds [10 x %struct.config_s], ptr @configuration_table, i64 0, i64 %89
  %91 = getelementptr inbounds nuw %struct.config_s, ptr %90, i32 0, i32 1
  %92 = load i16, ptr %91, align 2, !tbaa !81
  %93 = zext i16 %92 to i32
  %94 = load ptr, ptr %8, align 8, !tbaa !20
  %95 = getelementptr inbounds nuw %struct.internal_state, ptr %94, i32 0, i32 32
  store i32 %93, ptr %95, align 8, !tbaa !83
  %96 = load i32, ptr %6, align 4, !tbaa !8
  %97 = sext i32 %96 to i64
  %98 = getelementptr inbounds [10 x %struct.config_s], ptr @configuration_table, i64 0, i64 %97
  %99 = getelementptr inbounds nuw %struct.config_s, ptr %98, i32 0, i32 0
  %100 = load i16, ptr %99, align 16, !tbaa !84
  %101 = zext i16 %100 to i32
  %102 = load ptr, ptr %8, align 8, !tbaa !20
  %103 = getelementptr inbounds nuw %struct.internal_state, ptr %102, i32 0, i32 35
  store i32 %101, ptr %103, align 4, !tbaa !85
  %104 = load i32, ptr %6, align 4, !tbaa !8
  %105 = sext i32 %104 to i64
  %106 = getelementptr inbounds [10 x %struct.config_s], ptr @configuration_table, i64 0, i64 %105
  %107 = getelementptr inbounds nuw %struct.config_s, ptr %106, i32 0, i32 2
  %108 = load i16, ptr %107, align 4, !tbaa !86
  %109 = zext i16 %108 to i32
  %110 = load ptr, ptr %8, align 8, !tbaa !20
  %111 = getelementptr inbounds nuw %struct.internal_state, ptr %110, i32 0, i32 36
  store i32 %109, ptr %111, align 8, !tbaa !87
  %112 = load i32, ptr %6, align 4, !tbaa !8
  %113 = sext i32 %112 to i64
  %114 = getelementptr inbounds [10 x %struct.config_s], ptr @configuration_table, i64 0, i64 %113
  %115 = getelementptr inbounds nuw %struct.config_s, ptr %114, i32 0, i32 3
  %116 = load i16, ptr %115, align 2, !tbaa !88
  %117 = zext i16 %116 to i32
  %118 = load ptr, ptr %8, align 8, !tbaa !20
  %119 = getelementptr inbounds nuw %struct.internal_state, ptr %118, i32 0, i32 31
  store i32 %117, ptr %119, align 4, !tbaa !89
  br label %120

120:                                              ; preds = %84, %78
  %121 = load i32, ptr %7, align 4, !tbaa !8
  %122 = load ptr, ptr %8, align 8, !tbaa !20
  %123 = getelementptr inbounds nuw %struct.internal_state, ptr %122, i32 0, i32 34
  store i32 %121, ptr %123, align 8, !tbaa !51
  %124 = load i32, ptr %10, align 4, !tbaa !8
  store i32 %124, ptr %4, align 4
  store i32 1, ptr %11, align 4
  br label %125

125:                                              ; preds = %120, %39, %19
  call void @llvm.lifetime.end.p0(i64 4, ptr %10) #5
  call void @llvm.lifetime.end.p0(i64 8, ptr %9) #5
  call void @llvm.lifetime.end.p0(i64 8, ptr %8) #5
  %126 = load i32, ptr %4, align 4
  ret i32 %126
}