; Function Attrs: nounwind uwtable
define range(i32 -5, 2) i32 @deflateParams(ptr noundef %0, i32 noundef %1, i32 noundef %2) local_unnamed_addr #0 {
  %4 = icmp eq ptr %0, null
  br i1 %4, label %55, label %5

5:                                                ; preds = %3
  %6 = getelementptr inbounds nuw i8, ptr %0, i64 56
  %7 = load ptr, ptr %6, align 8, !tbaa !16
  %8 = icmp eq ptr %7, null
  br i1 %8, label %55, label %9

9:                                                ; preds = %5
  %10 = icmp eq i32 %1, -1
  %spec.store.select = select i1 %10, i32 6, i32 %1
  %or.cond = icmp ugt i32 %spec.store.select, 9
  %11 = icmp ugt i32 %2, 4
  %or.cond5 = or i1 %11, %or.cond
  br i1 %or.cond5, label %55, label %12

12:                                               ; preds = %9
  %13 = getelementptr inbounds nuw i8, ptr %7, i64 180
  %14 = getelementptr inbounds nuw i8, ptr %7, i64 184
  %15 = load i32, ptr %14, align 8, !tbaa !47
  %.not = icmp eq i32 %2, %15
  br i1 %.not, label %16, label %24

16:                                               ; preds = %12
  %17 = load i32, ptr %13, align 4, !tbaa !46
  %18 = sext i32 %17 to i64
  %19 = getelementptr inbounds [10 x %struct.config_s], ptr @configuration_table, i64 0, i64 %18, i32 4
  %20 = load ptr, ptr %19, align 8, !tbaa !88
  %21 = zext nneg i32 %spec.store.select to i64
  %22 = getelementptr inbounds nuw [10 x %struct.config_s], ptr @configuration_table, i64 0, i64 %21, i32 4
  %23 = load ptr, ptr %22, align 8, !tbaa !88
  %.not42 = icmp eq ptr %20, %23
  br i1 %.not42, label %34, label %24

24:                                               ; preds = %16, %12
  %25 = getelementptr inbounds nuw i8, ptr %0, i64 16
  %26 = load i64, ptr %25, align 8, !tbaa !49
  %.not43 = icmp eq i64 %26, 0
  br i1 %.not43, label %34, label %27

27:                                               ; preds = %24
  %28 = tail call i32 @deflate(ptr noundef nonnull %0, i32 noundef 5)
  %29 = icmp eq i32 %28, -5
  br i1 %29, label %30, label %34

30:                                               ; preds = %27
  %31 = getelementptr inbounds nuw i8, ptr %7, i64 40
  %32 = load i32, ptr %31, align 8, !tbaa !51
  %33 = icmp eq i32 %32, 0
  %spec.select = select i1 %33, i32 0, i32 -5
  br label %34

34:                                               ; preds = %30, %27, %24, %16
  %.0 = phi i32 [ %28, %27 ], [ 0, %24 ], [ 0, %16 ], [ %spec.select, %30 ]
  %35 = load i32, ptr %13, align 4, !tbaa !46
  %.not44 = icmp eq i32 %35, %spec.store.select
  br i1 %.not44, label %54, label %36

36:                                               ; preds = %34
  store i32 %spec.store.select, ptr %13, align 4, !tbaa !46
  %37 = zext nneg i32 %spec.store.select to i64
  %38 = getelementptr inbounds nuw [10 x %struct.config_s], ptr @configuration_table, i64 0, i64 %37
  %39 = getelementptr inbounds nuw i8, ptr %38, i64 2
  %40 = load i16, ptr %39, align 2, !tbaa !57
  %41 = zext i16 %40 to i32
  %42 = getelementptr inbounds nuw i8, ptr %7, i64 176
  store i32 %41, ptr %42, align 8, !tbaa !59
  %43 = load i16, ptr %38, align 16, !tbaa !60
  %44 = zext i16 %43 to i32
  %45 = getelementptr inbounds nuw i8, ptr %7, i64 188
  store i32 %44, ptr %45, align 4, !tbaa !61
  %46 = getelementptr inbounds nuw i8, ptr %38, i64 4
  %47 = load i16, ptr %46, align 4, !tbaa !62
  %48 = zext i16 %47 to i32
  %49 = getelementptr inbounds nuw i8, ptr %7, i64 192
  store i32 %48, ptr %49, align 8, !tbaa !63
  %50 = getelementptr inbounds nuw i8, ptr %38, i64 6
  %51 = load i16, ptr %50, align 2, !tbaa !64
  %52 = zext i16 %51 to i32
  %53 = getelementptr inbounds nuw i8, ptr %7, i64 172
  store i32 %52, ptr %53, align 4, !tbaa !65
  br label %54

54:                                               ; preds = %36, %34
  store i32 %2, ptr %14, align 8, !tbaa !47
  br label %55

55:                                               ; preds = %9, %3, %5, %54
  %.037 = phi i32 [ %.0, %54 ], [ -2, %5 ], [ -2, %3 ], [ -2, %9 ]
  ret i32 %.037
}